; Function Attrs: mustprogress nounwind uwtable
define hidden noundef zeroext i1 @_ZNK19ZReferenceProcessor11is_inactiveE8zaddressP7oopDesc13ReferenceType(ptr nocapture noundef nonnull readnone align 8 dereferenceable(80) %0, i64 noundef %1, ptr noundef readnone %2, i32 noundef %3) local_unnamed_addr #1 align 2 {
  %5 = icmp eq i32 %3, 3
  br i1 %5, label %6, label %13

6:                                                ; preds = %4
  %7 = inttoptr i64 %1 to ptr
  %8 = load i32, ptr @_ZN23java_lang_ref_Reference12_next_offsetE, align 4
  %9 = sext i32 %8 to i64
  %10 = load ptr, ptr @_ZN14AccessInternal15RuntimeDispatchILm286790EP7oopDescLNS_11BarrierTypeE3EE13_load_at_funcE, align 8
  %11 = tail call noundef ptr %10(ptr noundef nonnull %7, i64 noundef %9) #11
  %12 = icmp ne ptr %11, null
  br label %15

13:                                               ; preds = %4
  %14 = icmp eq ptr %2, null
  br label %15

15:                                               ; preds = %13, %6
  %.0 = phi i1 [ %12, %6 ], [ %14, %13 ]
  ret i1 %.0
}